Certificate:
    Data:
        Version: 3 (0x2)
        Serial Number: 3 (0x3)
        Signature Algorithm: sha256WithRSAEncryption
        Issuer: C=CA, ST=Alberta, L=Edmonton, O=Group03_W21, CN=10.229.1.1
        Validity
            Not Before: Mar 22 21:42:24 2021 GMT
            Not After : Mar 22 21:42:24 2022 GMT
        Subject: C=CA, ST=Alberta, L=Edmonton, O=Group03_W21_Web_Services, CN=10.229.1.1
        Subject Public Key Info:
            Public Key Algorithm: rsaEncryption
                RSA Public-Key: (1024 bit)
                Modulus:
                    00:c0:14:69:ca:0e:7b:2e:da:a7:84:56:f3:30:9e:
                    92:65:f1:af:65:1d:7d:50:09:e2:11:e1:95:3f:60:
                    d3:3b:c6:d8:2e:ed:ef:50:99:9a:86:7f:a2:7d:ae:
                    86:a4:01:12:b7:53:50:e0:d4:58:63:75:f6:0e:20:
                    be:dc:f8:75:ee:85:db:7e:d4:88:c5:e6:e4:09:d7:
                    d1:c1:22:ba:37:72:8e:8b:86:fa:f7:7a:46:6a:b7:
                    20:9f:ad:7d:26:6d:c6:23:97:3a:fc:43:4e:fa:71:
                    a1:eb:4e:32:27:d2:aa:27:19:7d:fc:61:45:a9:cc:
                    c1:e1:1b:6a:e8:15:db:0f:67
                Exponent: 65537 (0x10001)
        X509v3 extensions:
            X509v3 Basic Constraints: 
                CA:FALSE
            Netscape Comment: 
                OpenSSL Generated Certificate
            X509v3 Subject Key Identifier: 
                55:1D:CB:5F:A5:D9:1C:8D:87:67:77:D7:20:4E:87:C0:51:57:8D:66
            X509v3 Authority Key Identifier: 
                keyid:CF:7B:14:B8:6B:B1:42:00:C4:85:7B:4F:2C:66:4C:B8:95:64:6E:5D

    Signature Algorithm: sha256WithRSAEncryption
         83:9d:b7:cd:bc:ab:1f:91:10:a8:fd:85:72:f1:80:8c:7d:c2:
         09:59:8c:cf:f7:2b:7b:6d:5c:a9:b7:d8:34:e9:3a:c4:11:a3:
         53:94:83:45:61:de:b2:04:ff:23:5b:3b:91:68:6a:5f:ea:c6:
         07:66:72:78:5c:c1:c5:01:75:64:67:af:61:07:9f:28:71:40:
         b2:d9:ef:c2:c5:e4:85:e3:8a:e1:6a:0d:6b:26:ae:20:0b:74:
         f9:e6:fb:60:66:b6:d7:36:f4:5c:52:98:52:f9:f8:54:3d:62:
         09:58:68:af:f0:c9:ae:d2:26:23:a3:3f:4e:55:fa:49:4b:94:
         53:bf:d6:09:b1:9e:fd:d6:ab:dc:99:03:7a:02:ed:83:f4:d9:
         32:fa:ef:9f:53:5e:fe:a7:ac:69:bd:7a:40:11:e8:29:e4:75:
         e3:8d:35:83:e1:49:62:1c:33:4c:05:b0:52:05:c9:7b:ba:39:
         a9:08:f4:ea:64:44:97:d5:14:0d:c7:ce:64:da:5a:4d:54:23:
         21:1c:68:49:b9:f0:e3:f7:de:c7:64:78:8a:e7:b0:d8:bc:45:
         f2:dd:67:16:f9:85:18:d0:36:33:97:c3:4f:99:ad:7c:3b:f7:
         c2:48:ec:c2:66:6f:c3:c5:f1:e4:d9:27:b9:a2:fb:11:83:51:
         2b:41:c7:a4
-----BEGIN CERTIFICATE-----
MIIDOTCCAiGgAwIBAgIBAzANBgkqhkiG9w0BAQsFADBdMQswCQYDVQQGEwJDQTEQ
MA4GA1UECAwHQWxiZXJ0YTERMA8GA1UEBwwIRWRtb250b24xFDASBgNVBAoMC0dy
b3VwMDNfVzIxMRMwEQYDVQQDDAoxMC4yMjkuMS4xMB4XDTIxMDMyMjIxNDIyNFoX
DTIyMDMyMjIxNDIyNFowajELMAkGA1UEBhMCQ0ExEDAOBgNVBAgMB0FsYmVydGEx
ETAPBgNVBAcMCEVkbW9udG9uMSEwHwYDVQQKDBhHcm91cDAzX1cyMV9XZWJfU2Vy
dmljZXMxEzARBgNVBAMMCjEwLjIyOS4xLjEwgZ8wDQYJKoZIhvcNAQEBBQADgY0A
MIGJAoGBAMAUacoOey7ap4RW8zCekmXxr2UdfVAJ4hHhlT9g0zvG2C7t71CZmoZ/
on2uhqQBErdTUODUWGN19g4gvtz4de6F237UiMXm5AnX0cEiujdyjouG+vd6Rmq3
IJ+tfSZtxiOXOvxDTvpxoetOMifSqicZffxhRanMweEbaugV2w9nAgMBAAGjezB5
MAkGA1UdEwQCMAAwLAYJYIZIAYb4QgENBB8WHU9wZW5TU0wgR2VuZXJhdGVkIENl
cnRpZmljYXRlMB0GA1UdDgQWBBRVHctfpdkcjYdnd9cgTofAUVeNZjAfBgNVHSME
GDAWgBTPexS4a7FCAMSFe08sZky4lWRuXTANBgkqhkiG9w0BAQsFAAOCAQEAg523
zbyrH5EQqP2FcvGAjH3CCVmMz/cre21cqbfYNOk6xBGjU5SDRWHesgT/I1s7kWhq
X+rGB2ZyeFzBxQF1ZGevYQefKHFAstnvwsXkheOK4WoNayauIAt0+eb7YGa21zb0
XFKYUvn4VD1iCVhor/DJrtImI6M/TlX6SUuUU7/WCbGe/dar3JkDegLtg/TZMvrv
n1Ne/qesab16QBHoKeR14401g+FJYhwzTAWwUgXJe7o5qQj06mREl9UUDcfOZNpa
TVQjIRxoSbnw4/fex2R4iuew2LxF8t1nFvmFGNA2M5fDT5mtfDv3wkjswmZvw8Xx
5NknuaL7EYNRK0HHpA==
-----END CERTIFICATE-----
